; Function Attrs: nounwind uwtable
define internal fastcc i32 @on_hook(ptr noundef %0) unnamed_addr #0 {
  %.not = icmp eq ptr %0, null
  br i1 %.not, label %Py_XDECREF.exit, label %2

2:                                                ; preds = %1
  %3 = tail call ptr @PyObject_CallNoArgs(ptr noundef nonnull %0) #14
  %4 = icmp eq ptr %3, null
  br i1 %4, label %.split, label %5

.split:                                           ; preds = %2
  tail call void @PyErr_Clear() #14
  br label %Py_XDECREF.exit

5:                                                ; preds = %2
  %6 = icmp eq ptr %3, @_Py_NoneStruct
  br i1 %6, label %18, label %7

7:                                                ; preds = %5
  %8 = tail call i32 @PyLong_AsInt(ptr noundef nonnull %3) #14
  %9 = icmp eq i32 %8, -1
  br i1 %9, label %10, label %18

10:                                               ; preds = %7
  %11 = tail call ptr @PyErr_Occurred() #14
  %.not16 = icmp eq ptr %11, null
  br i1 %.not16, label %18, label %12

12:                                               ; preds = %10
  tail call void @PyErr_Clear() #14
  %13 = load i32, ptr %3, align 8, !tbaa !25
  %.not.i.i = icmp sgt i32 %13, -1
  br i1 %.not.i.i, label %14, label %Py_XDECREF.exit

14:                                               ; preds = %12
  %15 = add nsw i32 %13, -1
  store i32 %15, ptr %3, align 8, !tbaa !25
  %16 = icmp eq i32 %15, 0
  br i1 %16, label %17, label %Py_XDECREF.exit

17:                                               ; preds = %14
  tail call void @_Py_Dealloc(ptr noundef nonnull %3) #14
  br label %Py_XDECREF.exit

18:                                               ; preds = %5, %7, %10
  %.1 = phi i32 [ -1, %10 ], [ %8, %7 ], [ 0, %5 ]
  %19 = load i32, ptr %3, align 8, !tbaa !25
  %.not.i = icmp sgt i32 %19, -1
  br i1 %.not.i, label %20, label %Py_XDECREF.exit

20:                                               ; preds = %18
  %21 = add nsw i32 %19, -1
  store i32 %21, ptr %3, align 8, !tbaa !25
  %22 = icmp eq i32 %21, 0
  br i1 %22, label %23, label %Py_XDECREF.exit

23:                                               ; preds = %20
  tail call void @_Py_Dealloc(ptr noundef nonnull %3) #14
  br label %Py_XDECREF.exit

Py_XDECREF.exit:                                  ; preds = %23, %20, %18, %17, %14, %12, %1, %.split
  %.0 = phi i32 [ 0, %.split ], [ 0, %1 ], [ -1, %12 ], [ -1, %14 ], [ -1, %17 ], [ %.1, %18 ], [ %.1, %20 ], [ %.1, %23 ]
  ret i32 %.0
}